target datalayout = "e-m:e-p270:32:32-p271:32:32-p272:64:64-i64:64-i128:128-f80:128-n8:16:32:64-S128"
target triple = "x86_64-pc-linux-gnu"

%struct.slurm_select_ops_t = type { ptr, ptr, ptr, ptr, ptr, ptr, ptr, ptr, ptr, ptr, ptr, ptr, ptr, ptr, ptr, ptr, ptr, ptr, ptr, ptr, ptr, ptr, ptr, ptr, ptr, ptr, ptr, ptr, ptr, ptr, ptr, ptr }

@ops = internal global ptr null, align 8
@select_context_default = internal global i32 -1, align 4

; Function Attrs: nounwind uwtable
define dso_local i32 @select_running_linear_based() #0 {
  %1 = alloca i32, align 4
  call void @llvm.lifetime.start.p0(i64 4, ptr %1) #7
  store i32 0, ptr %1, align 4
  %2 = load ptr, ptr @ops, align 8
  %3 = load i32, ptr @select_context_default, align 4
  %4 = sext i32 %3 to i64
  %5 = getelementptr inbounds %struct.slurm_select_ops_t, ptr %2, i64 %4
  %6 = getelementptr inbounds nuw %struct.slurm_select_ops_t, ptr %5, i32 0, i32 0
  %7 = load ptr, ptr %6, align 8
  %8 = load i32, ptr %7, align 4
  switch i32 %8, label %10 [
    i32 102, label %9
  ]

9:                                                ; preds = %0
  store i32 1, ptr %1, align 4
  br label %11

10:                                               ; preds = %0
  store i32 0, ptr %1, align 4
  br label %11

11:                                               ; preds = %10, %9
  %12 = load i32, ptr %1, align 4
  call void @llvm.lifetime.end.p0(i64 4, ptr %1) #7
  ret i32 %12
}