; Function Attrs: mustprogress nofree norecurse nosync nounwind willreturn memory(read, inaccessiblemem: none) uwtable
define dso_local range(i32 0, 2) i32 @select_running_linear_based() local_unnamed_addr #8 {
  %1 = load ptr, ptr @ops, align 8
  %2 = load i32, ptr @select_context_default, align 4
  %3 = sext i32 %2 to i64
  %4 = getelementptr inbounds %struct.slurm_select_ops_t, ptr %1, i64 %3
  %5 = load ptr, ptr %4, align 8
  %6 = load i32, ptr %5, align 4
  %cond = icmp eq i32 %6, 102
  %. = zext i1 %cond to i32
  ret i32 %.
}